target datalayout = "e-m:e-p270:32:32-p271:32:32-p272:64:64-i64:64-i128:128-f80:128-n8:16:32:64-S128"
target triple = "x86_64-pc-linux-gnu"

; Function Attrs: mustprogress nounwind uwtable
define i32 @u_forDigit_77(i32 noundef %0, i8 noundef signext %1) #0 {
  %3 = alloca i32, align 4
  %4 = alloca i32, align 4
  %5 = alloca i8, align 1
  store i32 %0, ptr %4, align 4, !tbaa !3
  store i8 %1, ptr %5, align 1, !tbaa !23
  %6 = load i8, ptr %5, align 1, !tbaa !23
  %7 = sext i8 %6 to i32
  %8 = sub nsw i32 %7, 2
  %9 = trunc i32 %8 to i8
  %10 = zext i8 %9 to i32
  %11 = icmp sgt i32 %10, 34
  br i1 %11, label %17, label %12

12:                                               ; preds = %2
  %13 = load i32, ptr %4, align 4, !tbaa !3
  %14 = load i8, ptr %5, align 1, !tbaa !23
  %15 = sext i8 %14 to i32
  %16 = icmp uge i32 %13, %15
  br i1 %16, label %17, label %18

17:                                               ; preds = %12, %2
  store i32 0, ptr %3, align 4
  br label %27

18:                                               ; preds = %12
  %19 = load i32, ptr %4, align 4, !tbaa !3
  %20 = icmp slt i32 %19, 10
  br i1 %20, label %21, label %24

21:                                               ; preds = %18
  %22 = load i32, ptr %4, align 4, !tbaa !3
  %23 = add nsw i32 48, %22
  store i32 %23, ptr %3, align 4
  br label %27

24:                                               ; preds = %18
  %25 = load i32, ptr %4, align 4, !tbaa !3
  %26 = add nsw i32 87, %25
  store i32 %26, ptr %3, align 4
  br label %27

27:                                               ; preds = %24, %21, %17
  %28 = load i32, ptr %3, align 4
  ret i32 %28
}