; Function Attrs: mustprogress nofree norecurse nosync nounwind willreturn memory(none) uwtable
define range(i32 -2147483600, -2147483648) i32 @u_forDigit_77(i32 noundef %0, i8 noundef signext %1) local_unnamed_addr #0 {
  %3 = add i8 %1, -2
  %4 = icmp ult i8 %3, 35
  %5 = sext i8 %1 to i32
  %.not = icmp ult i32 %0, %5
  %or.cond = and i1 %4, %.not
  br i1 %or.cond, label %6, label %12

6:                                                ; preds = %2
  %7 = icmp slt i32 %0, 10
  br i1 %7, label %8, label %10

8:                                                ; preds = %6
  %9 = add nsw i32 %0, 48
  br label %12

10:                                               ; preds = %6
  %11 = add nuw nsw i32 %0, 87
  br label %12

12:                                               ; preds = %2, %10, %8
  %.0 = phi i32 [ %9, %8 ], [ %11, %10 ], [ 0, %2 ]
  ret i32 %.0
}